; Function Attrs: mustprogress uwtable
define void @_ZN15FieldFilterEdit13prepareFilterEv(ptr noundef nonnull align 8 dereferenceable(216) %0) local_unnamed_addr #2 align 2 personality ptr @__gxx_personality_v0 {
  %2 = alloca %class.QString, align 8
  %3 = alloca %class.QVariant, align 8
  %4 = alloca %class.QString, align 8
  %5 = alloca %class.QVariant, align 8
  %6 = tail call noundef ptr @_ZNK7QObject6senderEv(ptr noundef nonnull align 8 dereferenceable(16) %0)
  %7 = tail call noundef ptr @_ZNK11QMetaObject4castEPK7QObject(ptr noundef nonnull align 8 dereferenceable(56) @_ZN7QAction16staticMetaObjectE, ptr noundef %6)
  %.not.not = icmp eq ptr %7, null
  br i1 %.not.not, label %.critedge.thread, label %8

8:                                                ; preds = %1
  call void @_ZNK7QAction4dataEv(ptr dead_on_unwind nonnull writable sret(%class.QVariant) align 8 %3, ptr noundef nonnull align 8 dereferenceable(16) %7)
  invoke void @_ZNK8QVariant8toStringEv(ptr dead_on_unwind nonnull writable sret(%class.QString) align 8 %2, ptr noundef nonnull align 8 dereferenceable(32) %3)
          to label %9 unwind label %17

9:                                                ; preds = %8
  %10 = getelementptr inbounds i8, ptr %2, i64 16
  %11 = load i64, ptr %10, align 8
  %12 = icmp eq i64 %11, 0
  %13 = load ptr, ptr %2, align 8
  %.not.i.i.i = icmp eq ptr %13, null
  br i1 %.not.i.i.i, label %.critedge, label %_ZN17QArrayDataPointerIDsE5derefEv.exit.i.i

_ZN17QArrayDataPointerIDsE5derefEv.exit.i.i:      ; preds = %9
  %14 = atomicrmw sub ptr %13, i32 1 seq_cst, align 4
  %.not.i.i = icmp eq i32 %14, 1
  br i1 %.not.i.i, label %15, label %.critedge

15:                                               ; preds = %_ZN17QArrayDataPointerIDsE5derefEv.exit.i.i
  %16 = load ptr, ptr %2, align 8
  call void @_ZN10QArrayData10deallocateEPS_xx(ptr noundef %16, i64 noundef 2, i64 noundef 8) #15
  br label %.critedge

.critedge:                                        ; preds = %15, %_ZN17QArrayDataPointerIDsE5derefEv.exit.i.i, %9
  call void @_ZN8QVariantD1Ev(ptr noundef nonnull align 8 dereferenceable(32) %3) #15
  br i1 %12, label %.critedge.thread, label %19

17:                                               ; preds = %8
  %18 = landingpad { ptr, i32 }
          cleanup
  br label %_ZN7QStringD2Ev.exit22

19:                                               ; preds = %.critedge
  call void @_ZNK7QAction4dataEv(ptr dead_on_unwind nonnull writable sret(%class.QVariant) align 8 %5, ptr noundef nonnull align 8 dereferenceable(16) %7)
  invoke void @_ZNK8QVariant8toStringEv(ptr dead_on_unwind nonnull writable sret(%class.QString) align 8 %4, ptr noundef nonnull align 8 dereferenceable(32) %5)
          to label %20 unwind label %26

20:                                               ; preds = %19
  invoke void @_ZN9QLineEdit7setTextERK7QString(ptr noundef nonnull align 8 dereferenceable(40) %0, ptr noundef nonnull align 8 dereferenceable(24) %4)
          to label %21 unwind label %28

21:                                               ; preds = %20
  %22 = load ptr, ptr %4, align 8
  %.not.i.i.i15 = icmp eq ptr %22, null
  br i1 %.not.i.i.i15, label %_ZN7QStringD2Ev.exit18, label %_ZN17QArrayDataPointerIDsE5derefEv.exit.i.i16

_ZN17QArrayDataPointerIDsE5derefEv.exit.i.i16:    ; preds = %21
  %23 = atomicrmw sub ptr %22, i32 1 seq_cst, align 4
  %.not.i.i17 = icmp eq i32 %23, 1
  br i1 %.not.i.i17, label %24, label %_ZN7QStringD2Ev.exit18

24:                                               ; preds = %_ZN17QArrayDataPointerIDsE5derefEv.exit.i.i16
  %25 = load ptr, ptr %4, align 8
  call void @_ZN10QArrayData10deallocateEPS_xx(ptr noundef %25, i64 noundef 2, i64 noundef 8) #15
  br label %_ZN7QStringD2Ev.exit18

_ZN7QStringD2Ev.exit18:                           ; preds = %21, %_ZN17QArrayDataPointerIDsE5derefEv.exit.i.i16, %24
  call void @_ZN8QVariantD1Ev(ptr noundef nonnull align 8 dereferenceable(32) %5) #15
  br label %.critedge.thread

.critedge.thread:                                 ; preds = %1, %.critedge, %_ZN7QStringD2Ev.exit18
  ret void

26:                                               ; preds = %19
  %27 = landingpad { ptr, i32 }
          cleanup
  br label %_ZN7QStringD2Ev.exit22

28:                                               ; preds = %20
  %29 = landingpad { ptr, i32 }
          cleanup
  %30 = load ptr, ptr %4, align 8
  %.not.i.i.i19 = icmp eq ptr %30, null
  br i1 %.not.i.i.i19, label %_ZN7QStringD2Ev.exit22, label %_ZN17QArrayDataPointerIDsE5derefEv.exit.i.i20

_ZN17QArrayDataPointerIDsE5derefEv.exit.i.i20:    ; preds = %28
  %31 = atomicrmw sub ptr %30, i32 1 seq_cst, align 4
  %.not.i.i21 = icmp eq i32 %31, 1
  br i1 %.not.i.i21, label %32, label %_ZN7QStringD2Ev.exit22

32:                                               ; preds = %_ZN17QArrayDataPointerIDsE5derefEv.exit.i.i20
  %33 = load ptr, ptr %4, align 8
  call void @_ZN10QArrayData10deallocateEPS_xx(ptr noundef %33, i64 noundef 2, i64 noundef 8) #15
  br label %_ZN7QStringD2Ev.exit22

_ZN7QStringD2Ev.exit22:                           ; preds = %26, %28, %_ZN17QArrayDataPointerIDsE5derefEv.exit.i.i20, %32, %17
  %.sink = phi ptr [ %3, %17 ], [ %5, %32 ], [ %5, %_ZN17QArrayDataPointerIDsE5derefEv.exit.i.i20 ], [ %5, %28 ], [ %5, %26 ]
  %.pn.pn = phi { ptr, i32 } [ %18, %17 ], [ %29, %32 ], [ %29, %_ZN17QArrayDataPointerIDsE5derefEv.exit.i.i20 ], [ %29, %28 ], [ %27, %26 ]
  call void @_ZN8QVariantD1Ev(ptr noundef nonnull align 8 dereferenceable(32) %.sink) #15
  resume { ptr, i32 } %.pn.pn
}